target datalayout = "e-m:e-p270:32:32-p271:32:32-p272:64:64-i64:64-i128:128-f80:128-n8:16:32:64-S128"
target triple = "x86_64-unknown-linux-gnu"

%"class.Imf_3_2::MultiPartInputFile" = type { %"class.Imf_3_2::GenericInputFile", ptr }
%"class.Imf_3_2::GenericInputFile" = type { ptr }
%"struct.Imf_3_2::MultiPartInputFile::Data" = type { %"struct.Imf_3_2::InputStreamMutex", i32, i8, %"class.std::vector", i32, i8, %"class.std::map", %"class.std::vector.6" }
%"struct.Imf_3_2::InputStreamMutex" = type { %"class.std::mutex", ptr, i64 }
%"class.std::mutex" = type { %"class.std::__mutex_base" }
%"class.std::__mutex_base" = type { %union.pthread_mutex_t }
%union.pthread_mutex_t = type { %struct.__pthread_mutex_s }
%struct.__pthread_mutex_s = type { i32, i32, i32, i32, i32, i16, i16, %struct.__pthread_internal_list }
%struct.__pthread_internal_list = type { ptr, ptr }
%"class.std::vector" = type { %"struct.std::_Vector_base" }
%"struct.std::_Vector_base" = type { %"struct.std::_Vector_base<Imf_3_2::InputPartData *, std::allocator<Imf_3_2::InputPartData *>>::_Vector_impl" }
%"struct.std::_Vector_base<Imf_3_2::InputPartData *, std::allocator<Imf_3_2::InputPartData *>>::_Vector_impl" = type { %"struct.std::_Vector_base<Imf_3_2::InputPartData *, std::allocator<Imf_3_2::InputPartData *>>::_Vector_impl_data" }
%"struct.std::_Vector_base<Imf_3_2::InputPartData *, std::allocator<Imf_3_2::InputPartData *>>::_Vector_impl_data" = type { ptr, ptr, ptr }
%"class.std::map" = type { %"class.std::_Rb_tree" }
%"class.std::_Rb_tree" = type { %"struct.std::_Rb_tree<int, std::pair<const int, Imf_3_2::GenericInputFile *>, std::_Select1st<std::pair<const int, Imf_3_2::GenericInputFile *>>, std::less<int>>::_Rb_tree_impl" }
%"struct.std::_Rb_tree<int, std::pair<const int, Imf_3_2::GenericInputFile *>, std::_Select1st<std::pair<const int, Imf_3_2::GenericInputFile *>>, std::less<int>>::_Rb_tree_impl" = type { %"struct.std::_Rb_tree_key_compare", %"struct.std::_Rb_tree_header" }
%"struct.std::_Rb_tree_key_compare" = type { %"struct.std::less" }
%"struct.std::less" = type { i8 }
%"struct.std::_Rb_tree_header" = type { %"struct.std::_Rb_tree_node_base", i64 }
%"struct.std::_Rb_tree_node_base" = type { i32, ptr, ptr, ptr }
%"class.std::vector.6" = type { %"struct.std::_Vector_base.7" }
%"struct.std::_Vector_base.7" = type { %"struct.std::_Vector_base<Imf_3_2::Header, std::allocator<Imf_3_2::Header>>::_Vector_impl" }
%"struct.std::_Vector_base<Imf_3_2::Header, std::allocator<Imf_3_2::Header>>::_Vector_impl" = type { %"struct.std::_Vector_base<Imf_3_2::Header, std::allocator<Imf_3_2::Header>>::_Vector_impl_data" }
%"struct.std::_Vector_base<Imf_3_2::Header, std::allocator<Imf_3_2::Header>>::_Vector_impl_data" = type { ptr, ptr, ptr }

; Function Attrs: mustprogress nounwind uwtable
define linkonce_odr hidden noundef i64 @_ZNKSt6vectorIN7Imf_3_26HeaderESaIS1_EE4sizeEv(ptr noundef nonnull align 8 dereferenceable(24) %this) #5 comdat align 2 {
entry:
  %this.addr = alloca ptr, align 8
  store ptr %this, ptr %this.addr, align 8
  %this1 = load ptr, ptr %this.addr, align 8
  %_M_impl = getelementptr inbounds %"struct.std::_Vector_base.7", ptr %this1, i32 0, i32 0
  %_M_finish = getelementptr inbounds %"struct.std::_Vector_base<Imf_3_2::Header, std::allocator<Imf_3_2::Header>>::_Vector_impl_data", ptr %_M_impl, i32 0, i32 1
  %0 = load ptr, ptr %_M_finish, align 8
  %_M_impl2 = getelementptr inbounds %"struct.std::_Vector_base.7", ptr %this1, i32 0, i32 0
  %_M_start = getelementptr inbounds %"struct.std::_Vector_base<Imf_3_2::Header, std::allocator<Imf_3_2::Header>>::_Vector_impl_data", ptr %_M_impl2, i32 0, i32 0
  %1 = load ptr, ptr %_M_start, align 8
  %sub.ptr.lhs.cast = ptrtoint ptr %0 to i64
  %sub.ptr.rhs.cast = ptrtoint ptr %1 to i64
  %sub.ptr.sub = sub i64 %sub.ptr.lhs.cast, %sub.ptr.rhs.cast
  %sub.ptr.div = sdiv exact i64 %sub.ptr.sub, 56
  ret i64 %sub.ptr.div
}

; Function Attrs: mustprogress nounwind uwtable
define noundef i32 @_ZNK7Imf_3_218MultiPartInputFile5partsEv(ptr noundef nonnull align 8 dereferenceable(16) %this) #5 align 2 {
entry:
  %this.addr = alloca ptr, align 8
  store ptr %this, ptr %this.addr, align 8
  %this1 = load ptr, ptr %this.addr, align 8
  %_data = getelementptr inbounds %"class.Imf_3_2::MultiPartInputFile", ptr %this1, i32 0, i32 1
  %0 = load ptr, ptr %_data, align 8
  %_headers = getelementptr inbounds %"struct.Imf_3_2::MultiPartInputFile::Data", ptr %0, i32 0, i32 7
  %call = call noundef i64 @_ZNKSt6vectorIN7Imf_3_26HeaderESaIS1_EE4sizeEv(ptr noundef nonnull align 8 dereferenceable(24) %_headers) #3
  %conv = trunc i64 %call to i32
  ret i32 %conv
}