; Function Attrs: mustprogress nofree norecurse nosync nounwind willreturn memory(read, inaccessiblemem: none) uwtable
define noundef i32 @_ZNK7Imf_3_218MultiPartInputFile5partsEv(ptr nocapture noundef nonnull readonly align 8 dereferenceable(16) %this) local_unnamed_addr #10 align 2 {
entry:
  %_data = getelementptr inbounds i8, ptr %this, i64 8
  %0 = load ptr, ptr %_data, align 8
  %_headers = getelementptr inbounds i8, ptr %0, i64 144
  %_M_finish.i = getelementptr inbounds i8, ptr %0, i64 152
  %1 = load ptr, ptr %_M_finish.i, align 8
  %2 = load ptr, ptr %_headers, align 8
  %sub.ptr.lhs.cast.i = ptrtoint ptr %1 to i64
  %sub.ptr.rhs.cast.i = ptrtoint ptr %2 to i64
  %sub.ptr.sub.i = sub i64 %sub.ptr.lhs.cast.i, %sub.ptr.rhs.cast.i
  %sub.ptr.div.i = sdiv exact i64 %sub.ptr.sub.i, 56
  %conv = trunc i64 %sub.ptr.div.i to i32
  ret i32 %conv
}